target datalayout = "e-m:e-p270:32:32-p271:32:32-p272:64:64-i64:64-i128:128-f80:128-n8:16:32:64-S128"
target triple = "x86_64-pc-linux-gnu"

%struct.rocksdb_t = type { ptr }
%struct.rocksdb_column_family_handle_t = type { ptr, i8 }

; Function Attrs: mustprogress uwtable
define ptr @rocksdb_get_default_column_family_handle(ptr noundef %0) #0 {
  %2 = alloca ptr, align 8
  %3 = alloca ptr, align 8
  store ptr %0, ptr %2, align 8, !tbaa !14
  call void @llvm.lifetime.start.p0(i64 8, ptr %3) #24
  %4 = call noalias noundef nonnull ptr @_Znwm(i64 noundef 16) #25
  store ptr %4, ptr %3, align 8, !tbaa !200
  %5 = load ptr, ptr %2, align 8, !tbaa !14
  %6 = getelementptr inbounds nuw %struct.rocksdb_t, ptr %5, i32 0, i32 0
  %7 = load ptr, ptr %6, align 8, !tbaa !18
  %8 = load ptr, ptr %7, align 8, !tbaa !129
  %9 = getelementptr inbounds ptr, ptr %8, i64 135
  %10 = load ptr, ptr %9, align 8
  %11 = call noundef ptr %10(ptr noundef nonnull align 8 dereferenceable(8) %7)
  %12 = load ptr, ptr %3, align 8, !tbaa !200
  %13 = getelementptr inbounds nuw %struct.rocksdb_column_family_handle_t, ptr %12, i32 0, i32 0
  store ptr %11, ptr %13, align 8, !tbaa !204
  %14 = load ptr, ptr %3, align 8, !tbaa !200
  %15 = getelementptr inbounds nuw %struct.rocksdb_column_family_handle_t, ptr %14, i32 0, i32 1
  store i8 1, ptr %15, align 8, !tbaa !206
  %16 = load ptr, ptr %3, align 8, !tbaa !200
  call void @llvm.lifetime.end.p0(i64 8, ptr %3) #24
  ret ptr %16
}