; Function Attrs: mustprogress uwtable
define noundef nonnull ptr @rocksdb_get_default_column_family_handle(ptr noundef readonly captures(none) %0) local_unnamed_addr #0 {
  %2 = tail call noalias noundef nonnull dereferenceable(16) ptr @_Znwm(i64 noundef 16) #46
  %3 = load ptr, ptr %0, align 8, !tbaa !26
  %4 = load ptr, ptr %3, align 8, !tbaa !23
  %5 = getelementptr inbounds nuw i8, ptr %4, i64 1080
  %6 = load ptr, ptr %5, align 8
  %7 = tail call noundef ptr %6(ptr noundef nonnull align 8 dereferenceable(8) %3)
  store ptr %7, ptr %2, align 8, !tbaa !196
  %8 = getelementptr inbounds nuw i8, ptr %2, i64 8
  store i8 1, ptr %8, align 8, !tbaa !198
  ret ptr %2
}